; Function Attrs: mustprogress uwtable
define void @_ZN10MainWindow14openRecentMeshEv(ptr noundef nonnull align 8 dereferenceable(1376) %0) local_unnamed_addr #9 align 2 personality ptr @__gxx_personality_v0 {
  %2 = alloca %class.QString, align 8
  %3 = alloca %class.QVariant, align 8
  %4 = getelementptr inbounds i8, ptr %0, i64 1368
  %5 = load ptr, ptr %4, align 8
  %.not.i = icmp eq ptr %5, null
  br i1 %.not.i, label %_ZNK10MainWindow3GLAEv.exit.thread, label %_ZNK10MainWindow3GLAEv.exit

_ZNK10MainWindow3GLAEv.exit:                      ; preds = %1
  %6 = getelementptr inbounds i8, ptr %5, i64 256
  %7 = load ptr, ptr %6, align 8
  %.not = icmp eq ptr %7, null
  br i1 %.not, label %_ZNK10MainWindow3GLAEv.exit.thread, label %8

8:                                                ; preds = %_ZNK10MainWindow3GLAEv.exit
  %9 = getelementptr inbounds i8, ptr %5, i64 48
  %10 = tail call noundef zeroext i1 @_ZN12MeshDocument6isBusyEv(ptr noundef nonnull align 8 dereferenceable(192) %9)
  br i1 %10, label %_ZNK10MainWindow3GLAEv.exit.thread, label %11

11:                                               ; preds = %8
  %12 = tail call noundef ptr @_ZNK7QObject6senderEv(ptr noundef nonnull align 8 dereferenceable(16) %0)
  %13 = tail call noundef ptr @_ZNK11QMetaObject4castEP7QObject(ptr noundef nonnull align 8 dereferenceable(48) @_ZN7QAction16staticMetaObjectE, ptr noundef %12)
  %.not6 = icmp eq ptr %13, null
  br i1 %.not6, label %_ZNK10MainWindow3GLAEv.exit.thread, label %14

14:                                               ; preds = %11
  call void @_ZNK7QAction4dataEv(ptr dead_on_unwind nonnull writable sret(%class.QVariant) align 8 %3, ptr noundef nonnull align 8 dereferenceable(16) %13)
  invoke void @_ZNK8QVariant8toStringEv(ptr dead_on_unwind nonnull writable sret(%class.QString) align 8 %2, ptr noundef nonnull align 8 dereferenceable(16) %3)
          to label %15 unwind label %22

15:                                               ; preds = %14
  %16 = invoke noundef zeroext i1 @_ZN10MainWindow29importMeshWithLayerManagementE7QString(ptr noundef nonnull align 8 dereferenceable(1376) %0, ptr noundef nonnull %2)
          to label %17 unwind label %24

17:                                               ; preds = %15
  %18 = load ptr, ptr %2, align 8
  %19 = load atomic i32, ptr %18 monotonic, align 4
  switch i32 %19, label %_ZN9QtPrivate8RefCount5derefEv.exit.i [
    i32 0, label %_ZN9QtPrivate8RefCount5derefEv.exit.thread2.i
    i32 -1, label %_ZN7QStringD2Ev.exit
  ]

_ZN9QtPrivate8RefCount5derefEv.exit.i:            ; preds = %17
  %20 = atomicrmw sub ptr %18, i32 1 seq_cst, align 4
  %.not.i9 = icmp eq i32 %20, 1
  br i1 %.not.i9, label %_ZN9QtPrivate8RefCount5derefEv.exit._ZN9QtPrivate8RefCount5derefEv.exit.thread2_crit_edge.i, label %_ZN7QStringD2Ev.exit

_ZN9QtPrivate8RefCount5derefEv.exit._ZN9QtPrivate8RefCount5derefEv.exit.thread2_crit_edge.i: ; preds = %_ZN9QtPrivate8RefCount5derefEv.exit.i
  %.pre.i = load ptr, ptr %2, align 8
  br label %_ZN9QtPrivate8RefCount5derefEv.exit.thread2.i

_ZN9QtPrivate8RefCount5derefEv.exit.thread2.i:    ; preds = %_ZN9QtPrivate8RefCount5derefEv.exit._ZN9QtPrivate8RefCount5derefEv.exit.thread2_crit_edge.i, %17
  %21 = phi ptr [ %.pre.i, %_ZN9QtPrivate8RefCount5derefEv.exit._ZN9QtPrivate8RefCount5derefEv.exit.thread2_crit_edge.i ], [ %18, %17 ]
  call void @_ZN10QArrayData10deallocateEPS_mm(ptr noundef %21, i64 noundef 2, i64 noundef 8) #26
  br label %_ZN7QStringD2Ev.exit

_ZN7QStringD2Ev.exit:                             ; preds = %17, %_ZN9QtPrivate8RefCount5derefEv.exit.i, %_ZN9QtPrivate8RefCount5derefEv.exit.thread2.i
  call void @_ZN8QVariantD1Ev(ptr noundef nonnull align 8 dereferenceable(16) %3) #26
  br label %_ZNK10MainWindow3GLAEv.exit.thread

22:                                               ; preds = %14
  %23 = landingpad { ptr, i32 }
          cleanup
  br label %26

24:                                               ; preds = %15
  %25 = landingpad { ptr, i32 }
          cleanup
  call void @_ZN7QStringD2Ev(ptr noundef nonnull align 8 dereferenceable(8) %2) #26
  br label %26

26:                                               ; preds = %24, %22
  %.pn = phi { ptr, i32 } [ %25, %24 ], [ %23, %22 ]
  call void @_ZN8QVariantD1Ev(ptr noundef nonnull align 8 dereferenceable(16) %3) #26
  resume { ptr, i32 } %.pn

_ZNK10MainWindow3GLAEv.exit.thread:               ; preds = %1, %8, %_ZNK10MainWindow3GLAEv.exit, %_ZN7QStringD2Ev.exit, %11
  ret void
}